; Function Attrs: uwtable
define void @_ZTv0_n32_N8QuantLib13TermStructure6updateEv(ptr noundef %this) unnamed_addr #8 align 2 {
entry:
  %vtable = load ptr, ptr %this, align 8, !tbaa !3
  %0 = getelementptr inbounds i8, ptr %vtable, i64 -32
  %1 = load i64, ptr %0, align 8
  %2 = getelementptr inbounds i8, ptr %this, i64 %1
  %moving_.i = getelementptr inbounds nuw i8, ptr %2, i64 9
  %3 = load i8, ptr %moving_.i, align 1, !tbaa !10, !range !42, !noundef !43
  %loadedv.i = trunc nuw i8 %3 to i1
  br i1 %loadedv.i, label %if.then.i, label %_ZN8QuantLib13TermStructure6updateEv.exit

if.then.i:                                        ; preds = %entry
  %updated_.i = getelementptr inbounds nuw i8, ptr %2, i64 10
  store i8 0, ptr %updated_.i, align 2, !tbaa !21
  br label %_ZN8QuantLib13TermStructure6updateEv.exit

_ZN8QuantLib13TermStructure6updateEv.exit:        ; preds = %entry, %if.then.i
  %vtable.i = load ptr, ptr %2, align 8, !tbaa !3
  %vbase.offset.ptr.i = getelementptr i8, ptr %vtable.i, i64 -32
  %vbase.offset.i = load i64, ptr %vbase.offset.ptr.i, align 8
  %add.ptr.i = getelementptr inbounds i8, ptr %2, i64 %vbase.offset.i
  tail call void @_ZN8QuantLib10Observable15notifyObserversEv(ptr noundef nonnull align 8 dereferenceable(56) %add.ptr.i)
  ret void
}